target datalayout = "e-m:e-p270:32:32-p271:32:32-p272:64:64-i64:64-i128:128-f80:128-n8:16:32:64-S128"
target triple = "x86_64-pc-linux-gnu"

%struct._generic_ARKInterp = type { ptr, ptr }
%struct._generic_ARKInterpOps = type { ptr, ptr, ptr, ptr, ptr, ptr, ptr }

; Function Attrs: nounwind uwtable
define i32 @arkInterpSetDegree(ptr noundef %0, ptr noundef %1, i32 noundef %2) #0 {
  %4 = alloca i32, align 4
  %5 = alloca ptr, align 8
  %6 = alloca ptr, align 8
  %7 = alloca i32, align 4
  store ptr %0, ptr %5, align 8, !tbaa !3
  store ptr %1, ptr %6, align 8, !tbaa !8
  store i32 %2, ptr %7, align 4, !tbaa !24
  %8 = load ptr, ptr %6, align 8, !tbaa !8
  %9 = icmp eq ptr %8, null
  br i1 %9, label %10, label %11

10:                                               ; preds = %3
  store i32 0, ptr %4, align 4
  br label %21

11:                                               ; preds = %3
  %12 = load ptr, ptr %6, align 8, !tbaa !8
  %13 = getelementptr inbounds nuw %struct._generic_ARKInterp, ptr %12, i32 0, i32 1
  %14 = load ptr, ptr %13, align 8, !tbaa !15
  %15 = getelementptr inbounds nuw %struct._generic_ARKInterpOps, ptr %14, i32 0, i32 3
  %16 = load ptr, ptr %15, align 8, !tbaa !26
  %17 = load ptr, ptr %5, align 8, !tbaa !3
  %18 = load ptr, ptr %6, align 8, !tbaa !8
  %19 = load i32, ptr %7, align 4, !tbaa !24
  %20 = call i32 %16(ptr noundef %17, ptr noundef %18, i32 noundef %19)
  store i32 %20, ptr %4, align 4
  br label %21

21:                                               ; preds = %11, %10
  %22 = load i32, ptr %4, align 4
  ret i32 %22
}