; Function Attrs: nounwind uwtable
define i32 @arkInterpSetDegree(ptr noundef %0, ptr noundef %1, i32 noundef %2) local_unnamed_addr #0 {
  %4 = icmp eq ptr %1, null
  br i1 %4, label %11, label %5

5:                                                ; preds = %3
  %6 = getelementptr inbounds nuw i8, ptr %1, i64 8
  %7 = load ptr, ptr %6, align 8, !tbaa !3
  %8 = getelementptr inbounds nuw i8, ptr %7, i64 24
  %9 = load ptr, ptr %8, align 8, !tbaa !13
  %10 = tail call i32 %9(ptr noundef %0, ptr noundef nonnull %1, i32 noundef %2) #14
  br label %11

11:                                               ; preds = %3, %5
  %.0 = phi i32 [ %10, %5 ], [ 0, %3 ]
  ret i32 %.0
}